target datalayout = "e-m:e-p270:32:32-p271:32:32-p272:64:64-i64:64-i128:128-f80:128-n8:16:32:64-S128"
target triple = "x86_64-pc-linux-gnu"

%class.JVMCICompileState = type { ptr, ptr, i64, i8, i8, i8, i8, i8, i8, ptr, i8, i32 }

@.str.96 = private unnamed_addr constant [63 x i8] c"Jvmti state change during compilation invalidated dependencies\00", align 1

; Function Attrs: mustprogress nounwind uwtable
define linkonce_odr hidden noundef ptr @_ZN17JVMCICompileState4taskEv(ptr noundef nonnull align 8 dereferenceable(48) %0) #1 comdat align 2 {
  %2 = alloca ptr, align 8
  store ptr %0, ptr %2, align 8
  %3 = load ptr, ptr %2, align 8
  %4 = getelementptr inbounds %class.JVMCICompileState, ptr %3, i32 0, i32 0
  %5 = load ptr, ptr %4, align 8
  ret ptr %5
}

; Function Attrs: mustprogress nounwind uwtable
define hidden noundef i32 @_ZN12JVMCIRuntime34validate_compile_task_dependenciesEP12DependenciesP17JVMCICompileStatePPcRb(ptr noundef %0, ptr noundef %1, ptr noundef %2, ptr noundef nonnull align 1 dereferenceable(1) %3) #1 align 2 {
  %5 = alloca i32, align 4
  %6 = alloca ptr, align 8
  %7 = alloca ptr, align 8
  %8 = alloca ptr, align 8
  %9 = alloca ptr, align 8
  %10 = alloca ptr, align 8
  %11 = alloca i32, align 4
  store ptr %0, ptr %6, align 8
  store ptr %1, ptr %7, align 8
  store ptr %2, ptr %8, align 8
  store ptr %3, ptr %9, align 8
  %12 = load ptr, ptr %9, align 8
  store i8 0, ptr %12, align 1
  %13 = load ptr, ptr %7, align 8
  %14 = icmp ne ptr %13, null
  br i1 %14, label %15, label %20

15:                                               ; preds = %4
  %16 = load ptr, ptr %7, align 8
  %17 = call noundef zeroext i1 @_ZNK17JVMCICompileState19jvmti_state_changedEv(ptr noundef nonnull align 8 dereferenceable(48) %16)
  br i1 %17, label %18, label %20

18:                                               ; preds = %15
  %19 = load ptr, ptr %8, align 8
  store ptr @.str.96, ptr %19, align 8
  store i32 1, ptr %5, align 4
  br label %42

20:                                               ; preds = %15, %4
  %21 = load ptr, ptr %7, align 8
  %22 = icmp eq ptr %21, null
  br i1 %22, label %23, label %24

23:                                               ; preds = %20
  br label %27

24:                                               ; preds = %20
  %25 = load ptr, ptr %7, align 8
  %26 = call noundef ptr @_ZN17JVMCICompileState4taskEv(ptr noundef nonnull align 8 dereferenceable(48) %25)
  br label %27

27:                                               ; preds = %24, %23
  %28 = phi ptr [ null, %23 ], [ %26, %24 ]
  store ptr %28, ptr %10, align 8
  %29 = load ptr, ptr %6, align 8
  %30 = load ptr, ptr %10, align 8
  %31 = load ptr, ptr %8, align 8
  %32 = call noundef i32 @_ZN12Dependencies21validate_dependenciesEP11CompileTaskPPc(ptr noundef nonnull align 8 dereferenceable(192) %29, ptr noundef %30, ptr noundef %31)
  store i32 %32, ptr %11, align 4
  %33 = load i32, ptr %11, align 4
  %34 = icmp eq i32 %33, 0
  br i1 %34, label %35, label %36

35:                                               ; preds = %27
  store i32 0, ptr %5, align 4
  br label %42

36:                                               ; preds = %27
  %37 = load i32, ptr %11, align 4
  %38 = icmp eq i32 %37, 8
  br i1 %38, label %39, label %41

39:                                               ; preds = %36
  %40 = load ptr, ptr %9, align 8
  store i8 1, ptr %40, align 1
  br label %41

41:                                               ; preds = %39, %36
  store i32 1, ptr %5, align 4
  br label %42

42:                                               ; preds = %41, %35, %18
  %43 = load i32, ptr %5, align 4
  ret i32 %43
}