; Function Attrs: mustprogress nounwind uwtable
define hidden noundef range(i32 0, 2) i32 @_ZN12JVMCIRuntime34validate_compile_task_dependenciesEP12DependenciesP17JVMCICompileStatePPcRb(ptr noundef %0, ptr noundef %1, ptr noundef %2, ptr nocapture noundef nonnull writeonly align 1 dereferenceable(1) %3) local_unnamed_addr #0 align 2 {
  store i8 0, ptr %3, align 1
  %cond = icmp eq ptr %1, null
  br i1 %cond, label %10, label %5

5:                                                ; preds = %4
  %6 = tail call noundef zeroext i1 @_ZNK17JVMCICompileState19jvmti_state_changedEv(ptr noundef nonnull align 8 dereferenceable(48) %1) #15
  br i1 %6, label %7, label %8

7:                                                ; preds = %5
  store ptr @.str.96, ptr %2, align 8
  br label %15

8:                                                ; preds = %5
  %9 = load ptr, ptr %1, align 8
  br label %10

10:                                               ; preds = %4, %8
  %11 = phi ptr [ %9, %8 ], [ null, %4 ]
  %12 = tail call noundef i32 @_ZN12Dependencies21validate_dependenciesEP11CompileTaskPPc(ptr noundef nonnull align 8 dereferenceable(192) %0, ptr noundef %11, ptr noundef %2) #15
  switch i32 %12, label %14 [
    i32 0, label %15
    i32 8, label %13
  ]

13:                                               ; preds = %10
  store i8 1, ptr %3, align 1
  br label %14

14:                                               ; preds = %10, %13
  br label %15

15:                                               ; preds = %10, %14, %7
  %.0 = phi i32 [ 1, %7 ], [ 1, %14 ], [ %12, %10 ]
  ret i32 %.0
}